target datalayout = "e-m:e-p270:32:32-p271:32:32-p272:64:64-i64:64-i128:128-f80:128-n8:16:32:64-S128"
target triple = "x86_64-pc-linux-gnu"

%struct.lua_TValue = type { %union.Value, [1 x i32], i32 }
%union.Value = type { ptr }

; Function Attrs: mustprogress nounwind uwtable
define internal noundef i32 @_ZL14luauF_extractkP9lua_StateP10lua_TValueS2_iS2_i(ptr noundef %0, ptr noundef %1, ptr noundef %2, i32 noundef %3, ptr noundef %4, i32 noundef %5) #0 {
  %7 = alloca i32, align 4
  %8 = alloca ptr, align 8
  %9 = alloca ptr, align 8
  %10 = alloca ptr, align 8
  %11 = alloca i32, align 4
  %12 = alloca ptr, align 8
  %13 = alloca i32, align 4
  %14 = alloca double, align 8
  %15 = alloca double, align 8
  %16 = alloca i32, align 4
  %17 = alloca i32, align 4
  %18 = alloca i32, align 4
  %19 = alloca i32, align 4
  %20 = alloca i32, align 4
  %21 = alloca i32, align 4
  %22 = alloca ptr, align 8
  store ptr %0, ptr %8, align 8, !tbaa !4
  store ptr %1, ptr %9, align 8, !tbaa !9
  store ptr %2, ptr %10, align 8, !tbaa !9
  store i32 %3, ptr %11, align 4, !tbaa !11
  store ptr %4, ptr %12, align 8, !tbaa !9
  store i32 %5, ptr %13, align 4, !tbaa !11
  %23 = load i32, ptr %13, align 4, !tbaa !11
  %24 = icmp sge i32 %23, 2
  br i1 %24, label %25, label %64

25:                                               ; preds = %6
  %26 = load i32, ptr %11, align 4, !tbaa !11
  %27 = icmp sle i32 %26, 1
  br i1 %27, label %28, label %64

28:                                               ; preds = %25
  %29 = load ptr, ptr %10, align 8, !tbaa !9
  %30 = getelementptr inbounds nuw %struct.lua_TValue, ptr %29, i32 0, i32 2
  %31 = load i32, ptr %30, align 4, !tbaa !13
  %32 = icmp eq i32 %31, 3
  br i1 %32, label %33, label %64

33:                                               ; preds = %28
  call void @llvm.lifetime.start.p0(i64 8, ptr %14) #17
  %34 = load ptr, ptr %10, align 8, !tbaa !9
  %35 = getelementptr inbounds nuw %struct.lua_TValue, ptr %34, i32 0, i32 0
  %36 = load double, ptr %35, align 8, !tbaa !15
  store double %36, ptr %14, align 8, !tbaa !16
  call void @llvm.lifetime.start.p0(i64 8, ptr %15) #17
  %37 = load ptr, ptr %12, align 8, !tbaa !9
  %38 = getelementptr inbounds nuw %struct.lua_TValue, ptr %37, i32 0, i32 0
  %39 = load double, ptr %38, align 8, !tbaa !15
  store double %39, ptr %15, align 8, !tbaa !16
  call void @llvm.lifetime.start.p0(i64 4, ptr %16) #17
  %40 = load double, ptr %14, align 8, !tbaa !16
  %41 = fptosi double %40 to i64
  %42 = trunc i64 %41 to i32
  store i32 %42, ptr %16, align 4, !tbaa !11
  call void @llvm.lifetime.start.p0(i64 4, ptr %17) #17
  %43 = load double, ptr %15, align 8, !tbaa !16
  %44 = fptosi double %43 to i32
  store i32 %44, ptr %17, align 4, !tbaa !11
  call void @llvm.lifetime.start.p0(i64 4, ptr %18) #17
  %45 = load i32, ptr %17, align 4, !tbaa !11
  %46 = and i32 %45, 31
  store i32 %46, ptr %18, align 4, !tbaa !11
  call void @llvm.lifetime.start.p0(i64 4, ptr %19) #17
  %47 = load i32, ptr %17, align 4, !tbaa !11
  %48 = ashr i32 %47, 5
  store i32 %48, ptr %19, align 4, !tbaa !11
  call void @llvm.lifetime.start.p0(i64 4, ptr %20) #17
  %49 = load i32, ptr %19, align 4, !tbaa !11
  %50 = shl i32 -2, %49
  %51 = xor i32 %50, -1
  store i32 %51, ptr %20, align 4, !tbaa !11
  call void @llvm.lifetime.start.p0(i64 4, ptr %21) #17
  %52 = load i32, ptr %16, align 4, !tbaa !11
  %53 = load i32, ptr %18, align 4, !tbaa !11
  %54 = lshr i32 %52, %53
  %55 = load i32, ptr %20, align 4, !tbaa !11
  %56 = and i32 %54, %55
  store i32 %56, ptr %21, align 4, !tbaa !11
  call void @llvm.lifetime.start.p0(i64 8, ptr %22) #17
  %57 = load ptr, ptr %9, align 8, !tbaa !9
  store ptr %57, ptr %22, align 8, !tbaa !9
  %58 = load i32, ptr %21, align 4, !tbaa !11
  %59 = uitofp i32 %58 to double
  %60 = load ptr, ptr %22, align 8, !tbaa !9
  %61 = getelementptr inbounds nuw %struct.lua_TValue, ptr %60, i32 0, i32 0
  store double %59, ptr %61, align 8, !tbaa !15
  %62 = load ptr, ptr %22, align 8, !tbaa !9
  %63 = getelementptr inbounds nuw %struct.lua_TValue, ptr %62, i32 0, i32 2
  store i32 3, ptr %63, align 4, !tbaa !13
  call void @llvm.lifetime.end.p0(i64 8, ptr %22) #17
  store i32 1, ptr %7, align 4
  call void @llvm.lifetime.end.p0(i64 4, ptr %21) #17
  call void @llvm.lifetime.end.p0(i64 4, ptr %20) #17
  call void @llvm.lifetime.end.p0(i64 4, ptr %19) #17
  call void @llvm.lifetime.end.p0(i64 4, ptr %18) #17
  call void @llvm.lifetime.end.p0(i64 4, ptr %17) #17
  call void @llvm.lifetime.end.p0(i64 4, ptr %16) #17
  call void @llvm.lifetime.end.p0(i64 8, ptr %15) #17
  call void @llvm.lifetime.end.p0(i64 8, ptr %14) #17
  br label %65

64:                                               ; preds = %28, %25, %6
  store i32 -1, ptr %7, align 4
  br label %65

65:                                               ; preds = %64, %33
  %66 = load i32, ptr %7, align 4
  ret i32 %66
}