; Function Attrs: mustprogress nofree norecurse nosync nounwind willreturn memory(argmem: readwrite) uwtable
define internal noundef range(i32 -1, 2) i32 @_ZL14luauF_extractkP9lua_StateP10lua_TValueS2_iS2_i(ptr readnone captures(none) %0, ptr noundef writeonly captures(none) %1, ptr noundef readonly captures(none) %2, i32 noundef %3, ptr noundef readonly captures(none) %4, i32 noundef %5) #1 {
  %7 = icmp sgt i32 %5, 1
  %8 = icmp slt i32 %3, 2
  %or.cond = and i1 %8, %7
  br i1 %or.cond, label %9, label %27

9:                                                ; preds = %6
  %10 = getelementptr inbounds nuw i8, ptr %2, i64 12
  %11 = load i32, ptr %10, align 4, !tbaa !4
  %12 = icmp eq i32 %11, 3
  br i1 %12, label %13, label %27

13:                                               ; preds = %9
  %14 = load double, ptr %2, align 8, !tbaa !9
  %15 = load double, ptr %4, align 8, !tbaa !9
  %16 = fptosi double %14 to i64
  %17 = trunc i64 %16 to i32
  %18 = fptosi double %15 to i32
  %19 = and i32 %18, 31
  %20 = ashr i32 %18, 5
  %21 = shl i32 -2, %20
  %22 = xor i32 %21, -1
  %23 = lshr i32 %17, %19
  %24 = and i32 %23, %22
  %25 = uitofp i32 %24 to double
  store double %25, ptr %1, align 8, !tbaa !9
  %26 = getelementptr inbounds nuw i8, ptr %1, i64 12
  store i32 3, ptr %26, align 4, !tbaa !4
  br label %27

27:                                               ; preds = %6, %9, %13
  %.0 = phi i32 [ 1, %13 ], [ -1, %9 ], [ -1, %6 ]
  ret i32 %.0
}